target datalayout = "e-m:e-p270:32:32-p271:32:32-p272:64:64-i64:64-i128:128-f80:128-n8:16:32:64-S128"
target triple = "x86_64-pc-linux-gnu"

%struct.SurfaceDataRasInfo = type { %struct.SurfaceDataBounds, ptr, i32, i32, i32, i32, ptr, ptr, ptr, ptr, ptr, ptr, i32, %union.anon.0 }
%struct.SurfaceDataBounds = type { i32, i32, i32, i32 }
%union.anon.0 = type { ptr, [56 x i8] }
%struct.SpanIteratorFuncs = type { ptr, ptr, ptr, ptr, ptr, ptr }
%struct._CompositeInfo = type { i32, %union.anon.1, i32 }
%union.anon.1 = type { float }

; Function Attrs: nounwind uwtable
define hidden void @Any3ByteXorSpans(ptr noundef %0, ptr noundef %1, ptr noundef %2, i32 noundef %3, ptr noundef %4, ptr noundef %5) #0 {
  %7 = alloca ptr, align 8
  %8 = alloca ptr, align 8
  %9 = alloca ptr, align 8
  %10 = alloca i32, align 4
  %11 = alloca ptr, align 8
  %12 = alloca ptr, align 8
  %13 = alloca ptr, align 8
  %14 = alloca i32, align 4
  %15 = alloca i32, align 4
  %16 = alloca i8, align 1
  %17 = alloca i8, align 1
  %18 = alloca i8, align 1
  %19 = alloca i8, align 1
  %20 = alloca i8, align 1
  %21 = alloca i8, align 1
  %22 = alloca i8, align 1
  %23 = alloca i8, align 1
  %24 = alloca i8, align 1
  %25 = alloca i32, align 4
  %26 = alloca [4 x i32], align 16
  %27 = alloca i32, align 4
  %28 = alloca i32, align 4
  %29 = alloca i32, align 4
  %30 = alloca i32, align 4
  %31 = alloca ptr, align 8
  %32 = alloca i32, align 4
  store ptr %0, ptr %7, align 8
  store ptr %1, ptr %8, align 8
  store ptr %2, ptr %9, align 8
  store i32 %3, ptr %10, align 4
  store ptr %4, ptr %11, align 8
  store ptr %5, ptr %12, align 8
  %33 = load ptr, ptr %7, align 8
  %34 = getelementptr inbounds %struct.SurfaceDataRasInfo, ptr %33, i32 0, i32 1
  %35 = load ptr, ptr %34, align 8
  store ptr %35, ptr %13, align 8
  %36 = load ptr, ptr %12, align 8
  %37 = getelementptr inbounds %struct._CompositeInfo, ptr %36, i32 0, i32 1
  %38 = load i32, ptr %37, align 4
  store i32 %38, ptr %14, align 4
  %39 = load ptr, ptr %12, align 8
  %40 = getelementptr inbounds %struct._CompositeInfo, ptr %39, i32 0, i32 2
  %41 = load i32, ptr %40, align 4
  store i32 %41, ptr %15, align 4
  %42 = load ptr, ptr %7, align 8
  %43 = getelementptr inbounds %struct.SurfaceDataRasInfo, ptr %42, i32 0, i32 4
  %44 = load i32, ptr %43, align 8
  store i32 %44, ptr %25, align 4
  br label %45

45:                                               ; preds = %6
  %46 = load i32, ptr %14, align 4
  %47 = trunc i32 %46 to i8
  store i8 %47, ptr %16, align 1
  %48 = load i32, ptr %14, align 4
  %49 = ashr i32 %48, 8
  %50 = trunc i32 %49 to i8
  store i8 %50, ptr %17, align 1
  %51 = load i32, ptr %14, align 4
  %52 = ashr i32 %51, 16
  %53 = trunc i32 %52 to i8
  store i8 %53, ptr %18, align 1
  br label %54

54:                                               ; preds = %45
  br label %55

55:                                               ; preds = %54
  %56 = load i32, ptr %10, align 4
  %57 = trunc i32 %56 to i8
  store i8 %57, ptr %19, align 1
  %58 = load i32, ptr %10, align 4
  %59 = ashr i32 %58, 8
  %60 = trunc i32 %59 to i8
  store i8 %60, ptr %20, align 1
  %61 = load i32, ptr %10, align 4
  %62 = ashr i32 %61, 16
  %63 = trunc i32 %62 to i8
  store i8 %63, ptr %21, align 1
  br label %64

64:                                               ; preds = %55
  br label %65

65:                                               ; preds = %64
  %66 = load i32, ptr %15, align 4
  %67 = trunc i32 %66 to i8
  store i8 %67, ptr %22, align 1
  %68 = load i32, ptr %15, align 4
  %69 = lshr i32 %68, 8
  %70 = trunc i32 %69 to i8
  store i8 %70, ptr %23, align 1
  %71 = load i32, ptr %15, align 4
  %72 = lshr i32 %71, 16
  %73 = trunc i32 %72 to i8
  store i8 %73, ptr %24, align 1
  br label %74

74:                                               ; preds = %65
  br label %75

75:                                               ; preds = %188, %74
  %76 = load ptr, ptr %8, align 8
  %77 = getelementptr inbounds %struct.SpanIteratorFuncs, ptr %76, i32 0, i32 4
  %78 = load ptr, ptr %77, align 8
  %79 = load ptr, ptr %9, align 8
  %80 = getelementptr inbounds [4 x i32], ptr %26, i64 0, i64 0
  %81 = call zeroext i8 %78(ptr noundef %79, ptr noundef %80)
  %82 = icmp ne i8 %81, 0
  br i1 %82, label %83, label %189

83:                                               ; preds = %75
  %84 = getelementptr inbounds [4 x i32], ptr %26, i64 0, i64 0
  %85 = load i32, ptr %84, align 16
  store i32 %85, ptr %27, align 4
  %86 = getelementptr inbounds [4 x i32], ptr %26, i64 0, i64 1
  %87 = load i32, ptr %86, align 4
  store i32 %87, ptr %28, align 4
  %88 = getelementptr inbounds [4 x i32], ptr %26, i64 0, i64 2
  %89 = load i32, ptr %88, align 8
  %90 = load i32, ptr %27, align 4
  %91 = sub nsw i32 %89, %90
  store i32 %91, ptr %29, align 4
  %92 = getelementptr inbounds [4 x i32], ptr %26, i64 0, i64 3
  %93 = load i32, ptr %92, align 4
  %94 = load i32, ptr %28, align 4
  %95 = sub nsw i32 %93, %94
  store i32 %95, ptr %30, align 4
  %96 = load ptr, ptr %13, align 8
  %97 = ptrtoint ptr %96 to i64
  %98 = load i32, ptr %28, align 4
  %99 = sext i32 %98 to i64
  %100 = load i32, ptr %25, align 4
  %101 = sext i32 %100 to i64
  %102 = mul nsw i64 %99, %101
  %103 = load i32, ptr %27, align 4
  %104 = sext i32 %103 to i64
  %105 = mul nsw i64 %104, 3
  %106 = add nsw i64 %102, %105
  %107 = add nsw i64 %97, %106
  %108 = inttoptr i64 %107 to ptr
  store ptr %108, ptr %31, align 8
  br label %109

109:                                              ; preds = %184, %83
  store i32 0, ptr %32, align 4
  br label %110

110:                                              ; preds = %174, %109
  %111 = load i32, ptr %32, align 4
  %112 = load i32, ptr %29, align 4
  %113 = icmp ult i32 %111, %112
  br i1 %113, label %114, label %177

114:                                              ; preds = %110
  br label %115

115:                                              ; preds = %114
  %116 = load i8, ptr %19, align 1
  %117 = zext i8 %116 to i32
  %118 = load i8, ptr %16, align 1
  %119 = zext i8 %118 to i32
  %120 = xor i32 %117, %119
  %121 = load i8, ptr %22, align 1
  %122 = zext i8 %121 to i32
  %123 = xor i32 %122, -1
  %124 = and i32 %120, %123
  %125 = load ptr, ptr %31, align 8
  %126 = load i32, ptr %32, align 4
  %127 = mul i32 3, %126
  %128 = add i32 %127, 0
  %129 = zext i32 %128 to i64
  %130 = getelementptr inbounds i8, ptr %125, i64 %129
  %131 = load i8, ptr %130, align 1
  %132 = zext i8 %131 to i32
  %133 = xor i32 %132, %124
  %134 = trunc i32 %133 to i8
  store i8 %134, ptr %130, align 1
  %135 = load i8, ptr %20, align 1
  %136 = zext i8 %135 to i32
  %137 = load i8, ptr %17, align 1
  %138 = zext i8 %137 to i32
  %139 = xor i32 %136, %138
  %140 = load i8, ptr %23, align 1
  %141 = zext i8 %140 to i32
  %142 = xor i32 %141, -1
  %143 = and i32 %139, %142
  %144 = load ptr, ptr %31, align 8
  %145 = load i32, ptr %32, align 4
  %146 = mul i32 3, %145
  %147 = add i32 %146, 1
  %148 = zext i32 %147 to i64
  %149 = getelementptr inbounds i8, ptr %144, i64 %148
  %150 = load i8, ptr %149, align 1
  %151 = zext i8 %150 to i32
  %152 = xor i32 %151, %143
  %153 = trunc i32 %152 to i8
  store i8 %153, ptr %149, align 1
  %154 = load i8, ptr %21, align 1
  %155 = zext i8 %154 to i32
  %156 = load i8, ptr %18, align 1
  %157 = zext i8 %156 to i32
  %158 = xor i32 %155, %157
  %159 = load i8, ptr %24, align 1
  %160 = zext i8 %159 to i32
  %161 = xor i32 %160, -1
  %162 = and i32 %158, %161
  %163 = load ptr, ptr %31, align 8
  %164 = load i32, ptr %32, align 4
  %165 = mul i32 3, %164
  %166 = add i32 %165, 2
  %167 = zext i32 %166 to i64
  %168 = getelementptr inbounds i8, ptr %163, i64 %167
  %169 = load i8, ptr %168, align 1
  %170 = zext i8 %169 to i32
  %171 = xor i32 %170, %162
  %172 = trunc i32 %171 to i8
  store i8 %172, ptr %168, align 1
  br label %173

173:                                              ; preds = %115
  br label %174

174:                                              ; preds = %173
  %175 = load i32, ptr %32, align 4
  %176 = add i32 %175, 1
  store i32 %176, ptr %32, align 4
  br label %110, !llvm.loop !18

177:                                              ; preds = %110
  %178 = load ptr, ptr %31, align 8
  %179 = ptrtoint ptr %178 to i64
  %180 = load i32, ptr %25, align 4
  %181 = sext i32 %180 to i64
  %182 = add nsw i64 %179, %181
  %183 = inttoptr i64 %182 to ptr
  store ptr %183, ptr %31, align 8
  br label %184

184:                                              ; preds = %177
  %185 = load i32, ptr %30, align 4
  %186 = add i32 %185, -1
  store i32 %186, ptr %30, align 4
  %187 = icmp ugt i32 %186, 0
  br i1 %187, label %109, label %188, !llvm.loop !19

188:                                              ; preds = %184
  br label %75, !llvm.loop !20

189:                                              ; preds = %75
  ret void
}