; Function Attrs: nounwind uwtable
define hidden void @Any3ByteXorSpans(ptr nocapture noundef readonly %0, ptr nocapture noundef readonly %1, ptr noundef %2, i32 noundef %3, ptr nocapture readnone %4, ptr nocapture noundef readonly %5) #1 {
  %7 = alloca [4 x i32], align 16
  %8 = getelementptr inbounds i8, ptr %0, i64 16
  %9 = load ptr, ptr %8, align 8
  %10 = getelementptr inbounds i8, ptr %5, i64 4
  %11 = load i32, ptr %10, align 4
  %12 = getelementptr inbounds i8, ptr %5, i64 8
  %13 = load i32, ptr %12, align 4
  %14 = getelementptr inbounds i8, ptr %0, i64 32
  %15 = load i32, ptr %14, align 8
  %16 = getelementptr inbounds i8, ptr %1, i64 32
  %17 = load ptr, ptr %16, align 8
  %18 = call zeroext i8 %17(ptr noundef %2, ptr noundef nonnull %7) #6
  %.not48 = icmp eq i8 %18, 0
  br i1 %.not48, label %._crit_edge, label %.lr.ph

.lr.ph:                                           ; preds = %6
  %19 = getelementptr inbounds i8, ptr %7, i64 4
  %20 = getelementptr inbounds i8, ptr %7, i64 8
  %21 = getelementptr inbounds i8, ptr %7, i64 12
  %22 = ptrtoint ptr %9 to i64
  %23 = sext i32 %15 to i64
  %24 = xor i32 %11, %3
  %25 = xor i32 %13, -1
  %26 = and i32 %24, %25
  %27 = trunc i32 %26 to i8
  %28 = lshr i32 %26, 8
  %29 = trunc i32 %28 to i8
  %30 = lshr i32 %26, 16
  %31 = trunc i32 %30 to i8
  br label %32

32:                                               ; preds = %.lr.ph, %.split47.us
  %33 = load i32, ptr %7, align 16
  %34 = load i32, ptr %20, align 8
  %.not49 = icmp eq i32 %34, %33
  br i1 %.not49, label %.split47.us, label %.lr.ph.us.preheader

.lr.ph.us.preheader:                              ; preds = %32
  %35 = sub i32 %34, %33
  %36 = sext i32 %33 to i64
  %37 = mul nsw i64 %36, 3
  %38 = add i64 %37, %22
  %39 = load i32, ptr %19, align 4
  %40 = sext i32 %39 to i64
  %41 = mul nsw i64 %40, %23
  %42 = add i64 %38, %41
  %43 = load i32, ptr %21, align 4
  %44 = sub nsw i32 %43, %39
  %wide.trip.count = zext i32 %35 to i64
  br label %.lr.ph.us

.lr.ph.us:                                        ; preds = %.lr.ph.us.preheader, %._crit_edge.us
  %.042.us = phi i32 [ %63, %._crit_edge.us ], [ %44, %.lr.ph.us.preheader ]
  %.041.in.us = phi i64 [ %62, %._crit_edge.us ], [ %42, %.lr.ph.us.preheader ]
  %.041.us = inttoptr i64 %.041.in.us to ptr
  br label %45

45:                                               ; preds = %.lr.ph.us, %45
  %indvars.iv = phi i64 [ 0, %.lr.ph.us ], [ %indvars.iv.next, %45 ]
  %46 = trunc nuw i64 %indvars.iv to i32
  %47 = mul i32 %46, 3
  %48 = zext i32 %47 to i64
  %49 = getelementptr inbounds i8, ptr %.041.us, i64 %48
  %50 = load i8, ptr %49, align 1
  %51 = xor i8 %50, %27
  store i8 %51, ptr %49, align 1
  %52 = add i32 %47, 1
  %53 = zext i32 %52 to i64
  %54 = getelementptr inbounds i8, ptr %.041.us, i64 %53
  %55 = load i8, ptr %54, align 1
  %56 = xor i8 %55, %29
  store i8 %56, ptr %54, align 1
  %57 = add i32 %47, 2
  %58 = zext i32 %57 to i64
  %59 = getelementptr inbounds i8, ptr %.041.us, i64 %58
  %60 = load i8, ptr %59, align 1
  %61 = xor i8 %60, %31
  store i8 %61, ptr %59, align 1
  %indvars.iv.next = add nuw nsw i64 %indvars.iv, 1
  %exitcond.not = icmp eq i64 %indvars.iv.next, %wide.trip.count
  br i1 %exitcond.not, label %._crit_edge.us, label %45, !llvm.loop !18

._crit_edge.us:                                   ; preds = %45
  %62 = add nsw i64 %.041.in.us, %23
  %63 = add i32 %.042.us, -1
  %.not44.us = icmp eq i32 %63, 0
  br i1 %.not44.us, label %.split47.us, label %.lr.ph.us, !llvm.loop !19

.split47.us:                                      ; preds = %._crit_edge.us, %32
  %64 = load ptr, ptr %16, align 8
  %65 = call zeroext i8 %64(ptr noundef %2, ptr noundef nonnull %7) #6
  %.not = icmp eq i8 %65, 0
  br i1 %.not, label %._crit_edge, label %32, !llvm.loop !20

._crit_edge:                                      ; preds = %.split47.us, %6
  ret void
}